; Function Attrs: mustprogress uwtable
define void @_ZN7Imf_3_47Context18setLongNameSupportEb(ptr noundef nonnull readonly align 8 captures(none) dereferenceable(16) %0, i1 noundef zeroext %1) local_unnamed_addr #3 align 2 personality ptr @__gxx_personality_v0 {
  %3 = alloca %"class.std::__cxx11::basic_stringstream", align 8
  %4 = load ptr, ptr %0, align 8, !tbaa !8
  %5 = load ptr, ptr %4, align 8, !tbaa !3
  %6 = zext i1 %1 to i32
  %7 = tail call i32 @exr_set_longname_support(ptr noundef %5, i32 noundef %6)
  %.not = icmp eq i32 %7, 0
  br i1 %.not, label %18, label %8

8:                                                ; preds = %2
  tail call void @_Z13iex_debugTrapv()
  call void @llvm.lifetime.start.p0(i64 392, ptr nonnull %3) #30
  call void @_ZNSt7__cxx1118basic_stringstreamIcSt11char_traitsIcESaIcEEC1Ev(ptr noundef nonnull align 8 dereferenceable(128) %3)
  %9 = getelementptr inbounds nuw i8, ptr %3, i64 16
  %10 = invoke noundef nonnull align 8 dereferenceable(8) ptr @_ZSt16__ostream_insertIcSt11char_traitsIcEERSt13basic_ostreamIT_T0_ES6_PKS3_l(ptr noundef nonnull align 8 dereferenceable(8) %9, ptr noundef nonnull @.str.5, i64 noundef 36)
          to label %_ZStlsISt11char_traitsIcEERSt13basic_ostreamIcT_ES5_PKc.exit unwind label %13

_ZStlsISt11char_traitsIcEERSt13basic_ostreamIcT_ES5_PKc.exit: ; preds = %8
  %11 = call ptr @__cxa_allocate_exception(i64 72) #30
  invoke void @_ZN7Iex_3_46ArgExcC1ERNSt7__cxx1118basic_stringstreamIcSt11char_traitsIcESaIcEEE(ptr noundef nonnull align 8 dereferenceable(72) %11, ptr noundef nonnull align 8 dereferenceable(128) %3)
          to label %12 unwind label %15

12:                                               ; preds = %_ZStlsISt11char_traitsIcEERSt13basic_ostreamIcT_ES5_PKc.exit
  invoke void @__cxa_throw(ptr nonnull %11, ptr nonnull @_ZTIN7Iex_3_46ArgExcE, ptr nonnull @_ZN7Iex_3_46ArgExcD1Ev) #32
          to label %19 unwind label %13

13:                                               ; preds = %8, %12
  %14 = landingpad { ptr, i32 }
          cleanup
  br label %17

15:                                               ; preds = %_ZStlsISt11char_traitsIcEERSt13basic_ostreamIcT_ES5_PKc.exit
  %16 = landingpad { ptr, i32 }
          cleanup
  call void @__cxa_free_exception(ptr nonnull %11) #30
  br label %17

17:                                               ; preds = %15, %13
  %.pn = phi { ptr, i32 } [ %14, %13 ], [ %16, %15 ]
  call void @_ZNSt7__cxx1118basic_stringstreamIcSt11char_traitsIcESaIcEED1Ev(ptr noundef nonnull align 8 dereferenceable(128) %3) #30
  call void @llvm.lifetime.end.p0(i64 392, ptr nonnull %3) #30
  resume { ptr, i32 } %.pn

18:                                               ; preds = %2
  ret void

19:                                               ; preds = %12
  unreachable
}